target datalayout = "e-m:e-p270:32:32-p271:32:32-p272:64:64-i64:64-i128:128-f80:128-n8:16:32:64-S128"
target triple = "x86_64-pc-linux-gnu"

%struct.Vec_Int_t_ = type { i32, i32, ptr }
%struct.Abc_Ntk_t_ = type { i32, i32, ptr, ptr, ptr, ptr, ptr, ptr, ptr, ptr, ptr, ptr, ptr, [11 x i32], i32, i32, i32, i32, ptr, i32, ptr, ptr, i32, i32, i32, double, i32, %struct.Vec_Int_t_, ptr, ptr, ptr, ptr, ptr, float, i32, ptr, ptr, ptr, ptr, ptr, ptr, ptr, ptr, ptr, ptr, ptr, ptr, ptr, ptr, ptr, ptr, ptr, ptr, ptr, ptr, ptr, ptr }

; Function Attrs: nounwind uwtable
define ptr @Abc_NtkLutminInt(ptr noundef %0, i32 noundef %1, i32 noundef %2, i32 noundef %3) #0 {
  %5 = alloca ptr, align 8
  %6 = alloca i32, align 4
  %7 = alloca i32, align 4
  %8 = alloca i32, align 4
  %9 = alloca ptr, align 8
  store ptr %0, ptr %5, align 8, !tbaa !41
  store i32 %1, ptr %6, align 4, !tbaa !8
  store i32 %2, ptr %7, align 4, !tbaa !8
  store i32 %3, ptr %8, align 4, !tbaa !8
  call void @llvm.lifetime.start.p0(i64 8, ptr %9) #12
  %10 = load i32, ptr %7, align 4, !tbaa !8
  %11 = icmp ne i32 %10, 0
  br i1 %11, label %12, label %14

12:                                               ; preds = %4
  %13 = load ptr, ptr %5, align 8, !tbaa !41
  call void @Abc_NtkBddReorder(ptr noundef %13, i32 noundef 0)
  br label %14

14:                                               ; preds = %12, %4
  %15 = load ptr, ptr %5, align 8, !tbaa !41
  %16 = call ptr @Abc_NtkStartFrom(ptr noundef %15, i32 noundef 2, i32 noundef 2)
  store ptr %16, ptr %9, align 8, !tbaa !41
  %17 = load ptr, ptr %9, align 8, !tbaa !41
  %18 = getelementptr inbounds nuw %struct.Abc_Ntk_t_, ptr %17, i32 0, i32 30
  %19 = load ptr, ptr %18, align 8, !tbaa !55
  %20 = load ptr, ptr %5, align 8, !tbaa !41
  %21 = call i32 @Abc_NtkGetFaninMax(ptr noundef %20)
  %22 = call ptr @Cudd_bddIthVar(ptr noundef %19, i32 noundef %21)
  %23 = load ptr, ptr %5, align 8, !tbaa !41
  %24 = load ptr, ptr %9, align 8, !tbaa !41
  %25 = load i32, ptr %6, align 4, !tbaa !8
  %26 = load i32, ptr %8, align 4, !tbaa !8
  call void @Abc_NtkLutminConstruct(ptr noundef %23, ptr noundef %24, i32 noundef %25, i32 noundef %26)
  %27 = load ptr, ptr %5, align 8, !tbaa !41
  %28 = load ptr, ptr %9, align 8, !tbaa !41
  call void @Abc_NtkFinalize(ptr noundef %27, ptr noundef %28)
  %29 = load ptr, ptr %9, align 8, !tbaa !41
  %30 = call i32 @Abc_NtkMinimumBase(ptr noundef %29)
  %31 = load ptr, ptr %9, align 8, !tbaa !41
  call void @llvm.lifetime.end.p0(i64 8, ptr %9) #12
  ret ptr %31
}