; Function Attrs: nounwind uwtable
define ptr @Abc_NtkLutminInt(ptr noundef %0, i32 noundef %1, i32 noundef %2, i32 noundef %3) local_unnamed_addr #0 {
  %.not = icmp eq i32 %2, 0
  br i1 %.not, label %6, label %5

5:                                                ; preds = %4
  tail call void @Abc_NtkBddReorder(ptr noundef %0, i32 noundef 0) #20
  br label %6

6:                                                ; preds = %5, %4
  %7 = tail call ptr @Abc_NtkStartFrom(ptr noundef %0, i32 noundef 2, i32 noundef 2) #20
  %8 = getelementptr inbounds nuw i8, ptr %7, i64 256
  %9 = load ptr, ptr %8, align 8, !tbaa !48
  %10 = tail call i32 @Abc_NtkGetFaninMax(ptr noundef %0) #20
  %11 = tail call ptr @Cudd_bddIthVar(ptr noundef %9, i32 noundef %10) #20
  tail call void @Abc_NtkLutminConstruct(ptr noundef %0, ptr noundef %7, i32 noundef %1, i32 noundef %3)
  tail call void @Abc_NtkFinalize(ptr noundef %0, ptr noundef %7) #20
  %12 = tail call i32 @Abc_NtkMinimumBase(ptr noundef %7) #20
  ret ptr %7
}